target datalayout = "e-m:e-p270:32:32-p271:32:32-p272:64:64-i64:64-i128:128-f80:128-n8:16:32:64-S128"
target triple = "x86_64-pc-linux-gnu"

%struct.Str_Mux_t_ = type { i32, i32, i32, i32, [3 x %struct.Str_Edg_t_] }
%struct.Str_Edg_t_ = type { i32, i32, i32, i32 }

; Function Attrs: inlinehint nounwind uwtable
define internal ptr @Str_MuxFanin(ptr noundef %0, i32 noundef %1) #3 {
  %3 = alloca ptr, align 8
  %4 = alloca i32, align 4
  store ptr %0, ptr %3, align 8, !tbaa !153
  store i32 %1, ptr %4, align 4, !tbaa !39
  %5 = load ptr, ptr %3, align 8, !tbaa !153
  %6 = load ptr, ptr %3, align 8, !tbaa !153
  %7 = getelementptr inbounds nuw %struct.Str_Mux_t_, ptr %6, i32 0, i32 0
  %8 = load i32, ptr %7, align 4, !tbaa !159
  %9 = sext i32 %8 to i64
  %10 = sub i64 0, %9
  %11 = getelementptr inbounds %struct.Str_Mux_t_, ptr %5, i64 %10
  %12 = load ptr, ptr %3, align 8, !tbaa !153
  %13 = getelementptr inbounds nuw %struct.Str_Mux_t_, ptr %12, i32 0, i32 4
  %14 = load i32, ptr %4, align 4, !tbaa !39
  %15 = sext i32 %14 to i64
  %16 = getelementptr inbounds [3 x %struct.Str_Edg_t_], ptr %13, i64 0, i64 %15
  %17 = getelementptr inbounds nuw %struct.Str_Edg_t_, ptr %16, i32 0, i32 0
  %18 = load i32, ptr %17, align 4, !tbaa !155
  %19 = sext i32 %18 to i64
  %20 = getelementptr inbounds %struct.Str_Mux_t_, ptr %11, i64 %19
  ret ptr %20
}

; Function Attrs: nounwind uwtable
define ptr @Str_MuxFindBranching(ptr noundef %0, i32 noundef %1) #0 {
  %3 = alloca ptr, align 8
  %4 = alloca ptr, align 8
  %5 = alloca i32, align 4
  %6 = alloca ptr, align 8
  %7 = alloca i32, align 4
  store ptr %0, ptr %4, align 8, !tbaa !153
  store i32 %1, ptr %5, align 4, !tbaa !39
  call void @llvm.lifetime.start.p0(i64 8, ptr %6) #13
  %8 = load ptr, ptr %4, align 8, !tbaa !153
  %9 = getelementptr inbounds nuw %struct.Str_Mux_t_, ptr %8, i32 0, i32 4
  %10 = load i32, ptr %5, align 4, !tbaa !39
  %11 = sext i32 %10 to i64
  %12 = getelementptr inbounds [3 x %struct.Str_Edg_t_], ptr %9, i64 0, i64 %11
  %13 = getelementptr inbounds nuw %struct.Str_Edg_t_, ptr %12, i32 0, i32 0
  %14 = load i32, ptr %13, align 4, !tbaa !155
  %15 = icmp sle i32 %14, 0
  br i1 %15, label %16, label %17

16:                                               ; preds = %2
  store ptr null, ptr %3, align 8
  store i32 1, ptr %7, align 4
  br label %74

17:                                               ; preds = %2
  %18 = load ptr, ptr %4, align 8, !tbaa !153
  %19 = load i32, ptr %5, align 4, !tbaa !39
  %20 = call ptr @Str_MuxFanin(ptr noundef %18, i32 noundef %19)
  store ptr %20, ptr %6, align 8, !tbaa !153
  br label %21

21:                                               ; preds = %73, %17
  br label %22

22:                                               ; preds = %21
  %23 = load ptr, ptr %6, align 8, !tbaa !153
  %24 = getelementptr inbounds nuw %struct.Str_Mux_t_, ptr %23, i32 0, i32 4
  %25 = getelementptr inbounds [3 x %struct.Str_Edg_t_], ptr %24, i64 0, i64 0
  %26 = getelementptr inbounds nuw %struct.Str_Edg_t_, ptr %25, i32 0, i32 0
  %27 = load i32, ptr %26, align 4, !tbaa !155
  %28 = icmp sle i32 %27, 0
  br i1 %28, label %29, label %37

29:                                               ; preds = %22
  %30 = load ptr, ptr %6, align 8, !tbaa !153
  %31 = getelementptr inbounds nuw %struct.Str_Mux_t_, ptr %30, i32 0, i32 4
  %32 = getelementptr inbounds [3 x %struct.Str_Edg_t_], ptr %31, i64 0, i64 1
  %33 = getelementptr inbounds nuw %struct.Str_Edg_t_, ptr %32, i32 0, i32 0
  %34 = load i32, ptr %33, align 4, !tbaa !155
  %35 = icmp sle i32 %34, 0
  br i1 %35, label %36, label %37

36:                                               ; preds = %29
  store ptr null, ptr %3, align 8
  store i32 1, ptr %7, align 4
  br label %74

37:                                               ; preds = %29, %22
  %38 = load ptr, ptr %6, align 8, !tbaa !153
  %39 = getelementptr inbounds nuw %struct.Str_Mux_t_, ptr %38, i32 0, i32 4
  %40 = getelementptr inbounds [3 x %struct.Str_Edg_t_], ptr %39, i64 0, i64 0
  %41 = getelementptr inbounds nuw %struct.Str_Edg_t_, ptr %40, i32 0, i32 0
  %42 = load i32, ptr %41, align 4, !tbaa !155
  %43 = icmp sgt i32 %42, 0
  br i1 %43, label %44, label %53

44:                                               ; preds = %37
  %45 = load ptr, ptr %6, align 8, !tbaa !153
  %46 = getelementptr inbounds nuw %struct.Str_Mux_t_, ptr %45, i32 0, i32 4
  %47 = getelementptr inbounds [3 x %struct.Str_Edg_t_], ptr %46, i64 0, i64 1
  %48 = getelementptr inbounds nuw %struct.Str_Edg_t_, ptr %47, i32 0, i32 0
  %49 = load i32, ptr %48, align 4, !tbaa !155
  %50 = icmp sgt i32 %49, 0
  br i1 %50, label %51, label %53

51:                                               ; preds = %44
  %52 = load ptr, ptr %6, align 8, !tbaa !153
  store ptr %52, ptr %3, align 8
  store i32 1, ptr %7, align 4
  br label %74

53:                                               ; preds = %44, %37
  %54 = load ptr, ptr %6, align 8, !tbaa !153
  %55 = getelementptr inbounds nuw %struct.Str_Mux_t_, ptr %54, i32 0, i32 4
  %56 = getelementptr inbounds [3 x %struct.Str_Edg_t_], ptr %55, i64 0, i64 0
  %57 = getelementptr inbounds nuw %struct.Str_Edg_t_, ptr %56, i32 0, i32 0
  %58 = load i32, ptr %57, align 4, !tbaa !155
  %59 = icmp sgt i32 %58, 0
  br i1 %59, label %60, label %63

60:                                               ; preds = %53
  %61 = load ptr, ptr %6, align 8, !tbaa !153
  %62 = call ptr @Str_MuxFanin(ptr noundef %61, i32 noundef 0)
  store ptr %62, ptr %6, align 8, !tbaa !153
  br label %63

63:                                               ; preds = %60, %53
  %64 = load ptr, ptr %6, align 8, !tbaa !153
  %65 = getelementptr inbounds nuw %struct.Str_Mux_t_, ptr %64, i32 0, i32 4
  %66 = getelementptr inbounds [3 x %struct.Str_Edg_t_], ptr %65, i64 0, i64 1
  %67 = getelementptr inbounds nuw %struct.Str_Edg_t_, ptr %66, i32 0, i32 0
  %68 = load i32, ptr %67, align 4, !tbaa !155
  %69 = icmp sgt i32 %68, 0
  br i1 %69, label %70, label %73

70:                                               ; preds = %63
  %71 = load ptr, ptr %6, align 8, !tbaa !153
  %72 = call ptr @Str_MuxFanin(ptr noundef %71, i32 noundef 1)
  store ptr %72, ptr %6, align 8, !tbaa !153
  br label %73

73:                                               ; preds = %70, %63
  br label %21

74:                                               ; preds = %51, %36, %16
  call void @llvm.lifetime.end.p0(i64 8, ptr %6) #13
  %75 = load ptr, ptr %3, align 8
  ret ptr %75
}

; Function Attrs: nounwind uwtable
define i32 @Str_MuxRestruct_rec(ptr noundef %0, ptr noundef %1, ptr noundef %2, ptr noundef %3, i32 noundef %4, ptr noundef %5, i32 noundef %6) #0 {
  %8 = alloca ptr, align 8
  %9 = alloca ptr, align 8
  %10 = alloca ptr, align 8
  %11 = alloca ptr, align 8
  %12 = alloca i32, align 4
  %13 = alloca ptr, align 8
  %14 = alloca i32, align 4
  %15 = alloca i32, align 4
  %16 = alloca ptr, align 8
  store ptr %0, ptr %8, align 8, !tbaa !3
  store ptr %1, ptr %9, align 8, !tbaa !8
  store ptr %2, ptr %10, align 8, !tbaa !153
  store ptr %3, ptr %11, align 8, !tbaa !153
  store i32 %4, ptr %12, align 4, !tbaa !39
  store ptr %5, ptr %13, align 8, !tbaa !61
  store i32 %6, ptr %14, align 4, !tbaa !39
  call void @llvm.lifetime.start.p0(i64 4, ptr %15) #13
  store i32 0, ptr %15, align 4, !tbaa !39
  call void @llvm.lifetime.start.p0(i64 8, ptr %16) #13
  %17 = load ptr, ptr %11, align 8, !tbaa !153
  %18 = load i32, ptr %12, align 4, !tbaa !39
  %19 = call ptr @Str_MuxFindBranching(ptr noundef %17, i32 noundef %18)
  store ptr %19, ptr %16, align 8, !tbaa !153
  %20 = load ptr, ptr %16, align 8, !tbaa !153
  %21 = icmp ne ptr %20, null
  br i1 %21, label %22, label %32

22:                                               ; preds = %7
  %23 = load ptr, ptr %8, align 8, !tbaa !3
  %24 = load ptr, ptr %9, align 8, !tbaa !8
  %25 = load ptr, ptr %10, align 8, !tbaa !153
  %26 = load ptr, ptr %16, align 8, !tbaa !153
  %27 = load ptr, ptr %13, align 8, !tbaa !61
  %28 = load i32, ptr %14, align 4, !tbaa !39
  %29 = call i32 @Str_MuxRestruct_rec(ptr noundef %23, ptr noundef %24, ptr noundef %25, ptr noundef %26, i32 noundef 0, ptr noundef %27, i32 noundef %28)
  %30 = load i32, ptr %15, align 4, !tbaa !39
  %31 = or i32 %30, %29
  store i32 %31, ptr %15, align 4, !tbaa !39
  br label %32

32:                                               ; preds = %22, %7
  %33 = load ptr, ptr %16, align 8, !tbaa !153
  %34 = icmp ne ptr %33, null
  br i1 %34, label %35, label %45

35:                                               ; preds = %32
  %36 = load ptr, ptr %8, align 8, !tbaa !3
  %37 = load ptr, ptr %9, align 8, !tbaa !8
  %38 = load ptr, ptr %10, align 8, !tbaa !153
  %39 = load ptr, ptr %16, align 8, !tbaa !153
  %40 = load ptr, ptr %13, align 8, !tbaa !61
  %41 = load i32, ptr %14, align 4, !tbaa !39
  %42 = call i32 @Str_MuxRestruct_rec(ptr noundef %36, ptr noundef %37, ptr noundef %38, ptr noundef %39, i32 noundef 1, ptr noundef %40, i32 noundef %41)
  %43 = load i32, ptr %15, align 4, !tbaa !39
  %44 = or i32 %43, %42
  store i32 %44, ptr %15, align 4, !tbaa !39
  br label %45

45:                                               ; preds = %35, %32
  %46 = load ptr, ptr %8, align 8, !tbaa !3
  %47 = load ptr, ptr %9, align 8, !tbaa !8
  %48 = load ptr, ptr %10, align 8, !tbaa !153
  %49 = load ptr, ptr %11, align 8, !tbaa !153
  %50 = load i32, ptr %12, align 4, !tbaa !39
  %51 = load ptr, ptr %13, align 8, !tbaa !61
  %52 = load i32, ptr %14, align 4, !tbaa !39
  %53 = call i32 @Str_MuxTryOnce(ptr noundef %46, ptr noundef %47, ptr noundef %48, ptr noundef %49, i32 noundef %50, ptr noundef %51, i32 noundef %52)
  %54 = load i32, ptr %15, align 4, !tbaa !39
  %55 = or i32 %54, %53
  store i32 %55, ptr %15, align 4, !tbaa !39
  %56 = load i32, ptr %15, align 4, !tbaa !39
  call void @llvm.lifetime.end.p0(i64 8, ptr %16) #13
  call void @llvm.lifetime.end.p0(i64 4, ptr %15) #13
  ret i32 %56
}