; Function Attrs: nounwind uwtable
define range(i32 0, 2) i32 @Str_MuxRestruct_rec(ptr noundef %0, ptr noundef %1, ptr noundef %2, ptr noundef %3, i32 noundef %4, ptr noundef %5, i32 noundef %6) local_unnamed_addr #0 {
  %8 = getelementptr inbounds nuw i8, ptr %3, i64 16
  %9 = sext i32 %4 to i64
  %10 = getelementptr inbounds [3 x %struct.Str_Edg_t_], ptr %8, i64 0, i64 %9
  %11 = load i32, ptr %10, align 4, !tbaa !136
  %12 = icmp slt i32 %11, 1
  br i1 %12, label %.thread, label %.sink.split

.sink.split:                                      ; preds = %7, %.sink.split.backedge
  %.116.i.sink43 = phi ptr [ %.116.i.sink43.be, %.sink.split.backedge ], [ %3, %7 ]
  %.sink40 = phi i32 [ %.sink40.be, %.sink.split.backedge ], [ %11, %7 ]
  %13 = load i32, ptr %.116.i.sink43, align 4, !tbaa !139
  %14 = sext i32 %13 to i64
  %15 = sub nsw i64 0, %14
  %16 = getelementptr inbounds %struct.Str_Mux_t_, ptr %.116.i.sink43, i64 %15
  %17 = zext nneg i32 %.sink40 to i64
  %18 = getelementptr inbounds nuw %struct.Str_Mux_t_, ptr %16, i64 %17
  br label %19

19:                                               ; preds = %.sink.split, %29
  %.0.i = phi ptr [ %35, %29 ], [ %18, %.sink.split ]
  %20 = getelementptr inbounds nuw i8, ptr %.0.i, i64 16
  %21 = load i32, ptr %20, align 4, !tbaa !136
  %22 = icmp slt i32 %21, 1
  %23 = getelementptr inbounds nuw i8, ptr %.0.i, i64 32
  %24 = load i32, ptr %23, align 4, !tbaa !136
  br i1 %22, label %25, label %27

25:                                               ; preds = %19
  %26 = icmp slt i32 %24, 1
  br i1 %26, label %.thread, label %.sink.split.backedge

.sink.split.backedge:                             ; preds = %29, %25
  %.116.i.sink43.be = phi ptr [ %.0.i, %25 ], [ %35, %29 ]
  %.sink40.be = phi i32 [ %24, %25 ], [ %.pre.i, %29 ]
  br label %.sink.split

27:                                               ; preds = %19
  %28 = icmp sgt i32 %24, 0
  br i1 %28, label %37, label %29

29:                                               ; preds = %27
  %30 = load i32, ptr %.0.i, align 4, !tbaa !139
  %31 = sext i32 %30 to i64
  %32 = sub nsw i64 0, %31
  %33 = getelementptr inbounds %struct.Str_Mux_t_, ptr %.0.i, i64 %32
  %34 = zext nneg i32 %21 to i64
  %35 = getelementptr inbounds nuw %struct.Str_Mux_t_, ptr %33, i64 %34
  %.phi.trans.insert.i = getelementptr inbounds nuw i8, ptr %35, i64 32
  %.pre.i = load i32, ptr %.phi.trans.insert.i, align 4, !tbaa !136
  %36 = icmp sgt i32 %.pre.i, 0
  br i1 %36, label %.sink.split.backedge, label %19

37:                                               ; preds = %27
  %38 = tail call i32 @Str_MuxRestruct_rec(ptr noundef %0, ptr noundef %1, ptr noundef %2, ptr noundef nonnull %.0.i, i32 noundef 0, ptr noundef %5, i32 noundef %6)
  %39 = tail call i32 @Str_MuxRestruct_rec(ptr noundef %0, ptr noundef %1, ptr noundef %2, ptr noundef nonnull %.0.i, i32 noundef 1, ptr noundef %5, i32 noundef %6)
  %40 = or i32 %39, %38
  br label %.thread

.thread:                                          ; preds = %25, %7, %37
  %.1 = phi i32 [ %40, %37 ], [ 0, %7 ], [ 0, %25 ]
  %41 = tail call i32 @Str_MuxTryOnce(ptr noundef %0, ptr poison, ptr noundef %2, ptr noundef %3, i32 noundef %4, ptr noundef %5, i32 noundef %6)
  %42 = or i32 %41, %.1
  ret i32 %42
}